target datalayout = "e-m:e-p270:32:32-p271:32:32-p272:64:64-i64:64-i128:128-f80:128-n8:16:32:64-S128"
target triple = "x86_64-unknown-linux-gnu"

%struct.napi_env__ = type <{ ptr, ptr, %"class.v8::Global", %"class.v8::Global.0", %"class.v8impl::RefTracker", %"class.v8impl::RefTracker", %"class.std::unordered_set", %struct.napi_extended_error_info, i32, i32, i32, [4 x i8], ptr, i32, i8, [3 x i8] }>
%"class.v8::Global" = type { %"class.v8::PersistentBase" }
%"class.v8::PersistentBase" = type { %"class.v8::IndirectHandleBase" }
%"class.v8::IndirectHandleBase" = type { ptr }
%"class.v8::Global.0" = type { %"class.v8::PersistentBase.1" }
%"class.v8::PersistentBase.1" = type { %"class.v8::IndirectHandleBase" }
%"class.v8impl::RefTracker" = type { ptr, ptr, ptr }
%"class.std::unordered_set" = type { %"class.std::_Hashtable" }
%"class.std::_Hashtable" = type { ptr, i64, %"struct.std::__detail::_Hash_node_base", i64, %"struct.std::__detail::_Prime_rehash_policy", ptr }
%"struct.std::__detail::_Hash_node_base" = type { ptr }
%"struct.std::__detail::_Prime_rehash_policy" = type { float, i64 }
%struct.napi_extended_error_info = type { ptr, ptr, i32, i32 }
%"class.v8::Local" = type { %"class.v8::LocalBase" }
%"class.v8::LocalBase" = type { %"class.v8::IndirectHandleBase" }
%"class.v8::Local.6" = type { %"class.v8::LocalBase.7" }
%"class.v8::LocalBase.7" = type { %"class.v8::IndirectHandleBase" }
%"class.v8::MaybeLocal" = type { %"class.v8::Local.6" }
%"class.v8::Local.12" = type { %"class.v8::LocalBase.13" }
%"class.v8::LocalBase.13" = type { %"class.v8::IndirectHandleBase" }
%struct.napi_property_descriptor = type { ptr, ptr, ptr, ptr, ptr, ptr, i32, ptr }

; Function Attrs: mustprogress nounwind uwtable
define linkonce_odr dso_local ptr @_ZN6v8impl23V8LocalValueFromJsValueEP12napi_value__(ptr noundef %v) #4 comdat {
entry:
  %this.addr.i.i = alloca ptr, align 8
  %this.addr.i3 = alloca ptr, align 8
  %this.addr.i = alloca ptr, align 8
  %retval = alloca %"class.v8::Local", align 8
  %v.addr = alloca ptr, align 8
  store ptr %v, ptr %v.addr, align 8
  store ptr %retval, ptr %this.addr.i, align 8
  %this1.i = load ptr, ptr %this.addr.i, align 8
  store ptr %this1.i, ptr %this.addr.i3, align 8
  %this1.i4 = load ptr, ptr %this.addr.i3, align 8
  store ptr %this1.i4, ptr %this.addr.i.i, align 8
  %this1.i.i = load ptr, ptr %this.addr.i.i, align 8
  store ptr null, ptr %this1.i.i, align 8
  call void @llvm.memcpy.p0.p0.i64(ptr align 1 %retval, ptr align 8 %v.addr, i64 8, i1 false)
  %coerce.dive = getelementptr inbounds %"class.v8::Local", ptr %retval, i32 0, i32 0
  %coerce.dive1 = getelementptr inbounds %"class.v8::LocalBase", ptr %coerce.dive, i32 0, i32 0
  %coerce.dive2 = getelementptr inbounds %"class.v8::IndirectHandleBase", ptr %coerce.dive1, i32 0, i32 0
  %0 = load ptr, ptr %coerce.dive2, align 8
  ret ptr %0
}

; Function Attrs: mustprogress nounwind uwtable
define linkonce_odr dso_local noundef i32 @_Z19napi_set_last_errorP10napi_env__11napi_statusjPv(ptr noundef %env, i32 noundef %error_code, i32 noundef %engine_error_code, ptr noundef %engine_reserved) #4 comdat {
entry:
  %env.addr = alloca ptr, align 8
  %error_code.addr = alloca i32, align 4
  %engine_error_code.addr = alloca i32, align 4
  %engine_reserved.addr = alloca ptr, align 8
  store ptr %env, ptr %env.addr, align 8
  store i32 %error_code, ptr %error_code.addr, align 4
  store i32 %engine_error_code, ptr %engine_error_code.addr, align 4
  store ptr %engine_reserved, ptr %engine_reserved.addr, align 8
  %0 = load i32, ptr %error_code.addr, align 4
  %1 = load ptr, ptr %env.addr, align 8
  %last_error = getelementptr inbounds %struct.napi_env__, ptr %1, i32 0, i32 7
  %error_code1 = getelementptr inbounds %struct.napi_extended_error_info, ptr %last_error, i32 0, i32 3
  store i32 %0, ptr %error_code1, align 4
  %2 = load i32, ptr %engine_error_code.addr, align 4
  %3 = load ptr, ptr %env.addr, align 8
  %last_error2 = getelementptr inbounds %struct.napi_env__, ptr %3, i32 0, i32 7
  %engine_error_code3 = getelementptr inbounds %struct.napi_extended_error_info, ptr %last_error2, i32 0, i32 2
  store i32 %2, ptr %engine_error_code3, align 8
  %4 = load ptr, ptr %engine_reserved.addr, align 8
  %5 = load ptr, ptr %env.addr, align 8
  %last_error4 = getelementptr inbounds %struct.napi_env__, ptr %5, i32 0, i32 7
  %engine_reserved5 = getelementptr inbounds %struct.napi_extended_error_info, ptr %last_error4, i32 0, i32 1
  store ptr %4, ptr %engine_reserved5, align 8
  %6 = load i32, ptr %error_code.addr, align 4
  ret i32 %6
}

; Function Attrs: mustprogress nounwind uwtable
define internal noundef i32 @_ZN6v8impl12_GLOBAL__N_128V8NameFromPropertyDescriptorEP10napi_env__PK24napi_property_descriptorPN2v85LocalINS6_4NameEEE(ptr noundef %env, ptr noundef %p, ptr noundef %result) #4 {
entry:
  %this.addr.i65 = alloca ptr, align 8
  %other.addr.i66 = alloca ptr, align 8
  %this.addr.i62 = alloca ptr, align 8
  %other.addr.i63 = alloca ptr, align 8
  %retval.i60 = alloca %"class.v8::Local.12", align 8
  %that.i61 = alloca %"class.v8::Local", align 8
  %ref.tmp.i = alloca %"class.v8::LocalBase.13", align 8
  %slot.addr.i = alloca ptr, align 8
  %this.addr.i.i56 = alloca ptr, align 8
  %this.addr.i57 = alloca ptr, align 8
  %this.addr.i54 = alloca ptr, align 8
  %other.addr.i = alloca ptr, align 8
  %that.i = alloca %"class.v8::Local.6", align 8
  %this.addr.i53 = alloca ptr, align 8
  %retval.i49 = alloca %"class.v8::Local.12", align 8
  %this.addr.i50 = alloca ptr, align 8
  %agg.tmp.i = alloca %"class.v8::Local", align 8
  %this.addr.i47 = alloca ptr, align 8
  %this.addr.i.i.i = alloca ptr, align 8
  %this.addr.i.i43 = alloca ptr, align 8
  %retval.i = alloca %"class.v8::Local.6", align 8
  %this.addr.i44 = alloca ptr, align 8
  %this.addr.i.i = alloca ptr, align 8
  %this.addr.i = alloca ptr, align 8
  %retval = alloca i32, align 4
  %env.addr = alloca ptr, align 8
  %p.addr = alloca ptr, align 8
  %result.addr = alloca ptr, align 8
  %str_maybe = alloca %"class.v8::MaybeLocal", align 8
  %ref.tmp = alloca %"class.v8::Local.12", align 8
  %agg.tmp = alloca %"class.v8::Local.6", align 8
  %property_value = alloca %"class.v8::Local", align 8
  %ref.tmp37 = alloca %"class.v8::Local.12", align 8
  store ptr %env, ptr %env.addr, align 8
  store ptr %p, ptr %p.addr, align 8
  store ptr %result, ptr %result.addr, align 8
  %0 = load ptr, ptr %p.addr, align 8
  %utf8name = getelementptr inbounds %struct.napi_property_descriptor, ptr %0, i32 0, i32 0
  %1 = load ptr, ptr %utf8name, align 8
  %cmp = icmp ne ptr %1, null
  br i1 %cmp, label %if.then, label %if.else

if.then:                                          ; preds = %entry
  br label %do.body

do.body:                                          ; preds = %if.then
  br label %do.body1

do.body1:                                         ; preds = %do.body
  br label %do.end

do.end:                                           ; preds = %do.body1
  br label %do.body2

do.body2:                                         ; preds = %do.end
  %2 = load ptr, ptr %p.addr, align 8
  %utf8name3 = getelementptr inbounds %struct.napi_property_descriptor, ptr %2, i32 0, i32 0
  %3 = load ptr, ptr %utf8name3, align 8
  %cmp4 = icmp ne ptr %3, null
  br i1 %cmp4, label %if.end, label %if.then5

if.then5:                                         ; preds = %do.body2
  %4 = load ptr, ptr %env.addr, align 8
  %call = call noundef i32 @_Z19napi_set_last_errorP10napi_env__11napi_statusjPv(ptr noundef %4, i32 noundef 1, i32 noundef 0, ptr noundef null)
  store i32 %call, ptr %retval, align 4
  br label %return

if.end:                                           ; preds = %do.body2
  br label %do.end6

do.end6:                                          ; preds = %if.end
  %5 = load ptr, ptr %env.addr, align 8
  %isolate = getelementptr inbounds %struct.napi_env__, ptr %5, i32 0, i32 1
  %6 = load ptr, ptr %isolate, align 8
  %7 = load ptr, ptr %p.addr, align 8
  %utf8name7 = getelementptr inbounds %struct.napi_property_descriptor, ptr %7, i32 0, i32 0
  %8 = load ptr, ptr %utf8name7, align 8
  %call8 = call ptr @_ZN2v86String11NewFromUtf8EPNS_7IsolateEPKcNS_13NewStringTypeEi(ptr noundef %6, ptr noundef %8, i32 noundef 1, i32 noundef -1)
  %coerce.dive = getelementptr inbounds %"class.v8::MaybeLocal", ptr %str_maybe, i32 0, i32 0
  %coerce.dive9 = getelementptr inbounds %"class.v8::Local.6", ptr %coerce.dive, i32 0, i32 0
  %coerce.dive10 = getelementptr inbounds %"class.v8::LocalBase.7", ptr %coerce.dive9, i32 0, i32 0
  %coerce.dive11 = getelementptr inbounds %"class.v8::IndirectHandleBase", ptr %coerce.dive10, i32 0, i32 0
  store ptr %call8, ptr %coerce.dive11, align 8
  br label %do.body12

do.body12:                                        ; preds = %do.end6
  store ptr %str_maybe, ptr %this.addr.i, align 8
  %this1.i = load ptr, ptr %this.addr.i, align 8
  store ptr %this1.i, ptr %this.addr.i.i, align 8
  %this1.i.i = load ptr, ptr %this.addr.i.i, align 8
  %9 = load ptr, ptr %this1.i.i, align 8
  %cmp.i.i = icmp eq ptr %9, null
  br i1 %cmp.i.i, label %if.then14, label %if.end16

if.then14:                                        ; preds = %do.body12
  %10 = load ptr, ptr %env.addr, align 8
  %call15 = call noundef i32 @_Z19napi_set_last_errorP10napi_env__11napi_statusjPv(ptr noundef %10, i32 noundef 9, i32 noundef 0, ptr noundef null)
  store i32 %call15, ptr %retval, align 4
  br label %return

if.end16:                                         ; preds = %do.body12
  br label %do.end17

do.end17:                                         ; preds = %if.end16
  store ptr %str_maybe, ptr %this.addr.i44, align 8
  %this1.i45 = load ptr, ptr %this.addr.i44, align 8
  store ptr %this1.i45, ptr %this.addr.i.i43, align 8
  %this1.i.i46 = load ptr, ptr %this.addr.i.i43, align 8
  store ptr %this1.i.i46, ptr %this.addr.i.i.i, align 8
  %this1.i.i.i = load ptr, ptr %this.addr.i.i.i, align 8
  %11 = load ptr, ptr %this1.i.i.i, align 8
  %cmp.i.i.i = icmp eq ptr %11, null
  br i1 %cmp.i.i.i, label %if.then.i, label %_ZN2v810MaybeLocalINS_6StringEE14ToLocalCheckedEv.exit

if.then.i:                                        ; preds = %do.end17
  call void @_ZN2v812api_internal12ToLocalEmptyEv() #3
  br label %_ZN2v810MaybeLocalINS_6StringEE14ToLocalCheckedEv.exit

_ZN2v810MaybeLocalINS_6StringEE14ToLocalCheckedEv.exit: ; preds = %if.then.i, %do.end17
  call void @llvm.memcpy.p0.p0.i64(ptr align 8 %retval.i, ptr align 8 %this1.i45, i64 8, i1 false)
  %12 = load ptr, ptr %retval.i, align 8
  %coerce.dive19 = getelementptr inbounds %"class.v8::Local.6", ptr %agg.tmp, i32 0, i32 0
  %coerce.dive20 = getelementptr inbounds %"class.v8::LocalBase.7", ptr %coerce.dive19, i32 0, i32 0
  %coerce.dive21 = getelementptr inbounds %"class.v8::IndirectHandleBase", ptr %coerce.dive20, i32 0, i32 0
  store ptr %12, ptr %coerce.dive21, align 8
  %coerce.dive22 = getelementptr inbounds %"class.v8::Local.6", ptr %agg.tmp, i32 0, i32 0
  %coerce.dive23 = getelementptr inbounds %"class.v8::LocalBase.7", ptr %coerce.dive22, i32 0, i32 0
  %coerce.dive24 = getelementptr inbounds %"class.v8::IndirectHandleBase", ptr %coerce.dive23, i32 0, i32 0
  %13 = load ptr, ptr %coerce.dive24, align 8
  store ptr %13, ptr %that.i, align 8
  store ptr %ref.tmp, ptr %this.addr.i53, align 8
  %this3.i = load ptr, ptr %this.addr.i53, align 8
  store ptr %this3.i, ptr %this.addr.i54, align 8
  store ptr %that.i, ptr %other.addr.i, align 8
  %this1.i55 = load ptr, ptr %this.addr.i54, align 8
  %14 = load ptr, ptr %other.addr.i, align 8
  call void @llvm.memcpy.p0.p0.i64(ptr align 8 %this1.i55, ptr align 8 %14, i64 8, i1 false)
  %15 = load ptr, ptr %result.addr, align 8
  call void @llvm.memcpy.p0.p0.i64(ptr align 8 %15, ptr align 8 %ref.tmp, i64 8, i1 false)
  br label %do.end25

do.end25:                                         ; preds = %_ZN2v810MaybeLocalINS_6StringEE14ToLocalCheckedEv.exit
  br label %if.end42

if.else:                                          ; preds = %entry
  %16 = load ptr, ptr %p.addr, align 8
  %name = getelementptr inbounds %struct.napi_property_descriptor, ptr %16, i32 0, i32 1
  %17 = load ptr, ptr %name, align 8
  %call26 = call ptr @_ZN6v8impl23V8LocalValueFromJsValueEP12napi_value__(ptr noundef %17)
  %coerce.dive27 = getelementptr inbounds %"class.v8::Local", ptr %property_value, i32 0, i32 0
  %coerce.dive28 = getelementptr inbounds %"class.v8::LocalBase", ptr %coerce.dive27, i32 0, i32 0
  %coerce.dive29 = getelementptr inbounds %"class.v8::IndirectHandleBase", ptr %coerce.dive28, i32 0, i32 0
  store ptr %call26, ptr %coerce.dive29, align 8
  br label %do.body30

do.body30:                                        ; preds = %if.else
  store ptr %property_value, ptr %this.addr.i47, align 8
  %this1.i48 = load ptr, ptr %this.addr.i47, align 8
  store ptr %this1.i48, ptr %this.addr.i57, align 8
  %this1.i58 = load ptr, ptr %this.addr.i57, align 8
  store ptr %this1.i58, ptr %this.addr.i.i56, align 8
  %this1.i.i59 = load ptr, ptr %this.addr.i.i56, align 8
  %18 = load ptr, ptr %this1.i.i59, align 8
  store ptr %18, ptr %slot.addr.i, align 8
  %19 = load ptr, ptr %slot.addr.i, align 8
  %call32 = call noundef zeroext i1 @_ZNK2v85Value6IsNameEv(ptr noundef nonnull align 1 dereferenceable(1) %19)
  br i1 %call32, label %if.end35, label %if.then33

if.then33:                                        ; preds = %do.body30
  %20 = load ptr, ptr %env.addr, align 8
  %call34 = call noundef i32 @_Z19napi_set_last_errorP10napi_env__11napi_statusjPv(ptr noundef %20, i32 noundef 4, i32 noundef 0, ptr noundef null)
  store i32 %call34, ptr %retval, align 4
  br label %return

if.end35:                                         ; preds = %do.body30
  br label %do.end36

do.end36:                                         ; preds = %if.end35
  store ptr %property_value, ptr %this.addr.i50, align 8
  %this1.i51 = load ptr, ptr %this.addr.i50, align 8
  call void @llvm.memcpy.p0.p0.i64(ptr align 8 %agg.tmp.i, ptr align 8 %this1.i51, i64 8, i1 false)
  %21 = load ptr, ptr %agg.tmp.i, align 8
  store ptr %21, ptr %that.i61, align 8
  store ptr %ref.tmp.i, ptr %this.addr.i62, align 8
  store ptr %that.i61, ptr %other.addr.i63, align 8
  %this1.i64 = load ptr, ptr %this.addr.i62, align 8
  %22 = load ptr, ptr %other.addr.i63, align 8
  call void @llvm.memcpy.p0.p0.i64(ptr align 8 %this1.i64, ptr align 8 %22, i64 8, i1 false)
  store ptr %retval.i60, ptr %this.addr.i65, align 8
  store ptr %ref.tmp.i, ptr %other.addr.i66, align 8
  %this1.i67 = load ptr, ptr %this.addr.i65, align 8
  %23 = load ptr, ptr %other.addr.i66, align 8
  call void @llvm.memcpy.p0.p0.i64(ptr align 8 %this1.i67, ptr align 8 %23, i64 8, i1 false)
  %24 = load ptr, ptr %retval.i60, align 8
  store ptr %24, ptr %retval.i49, align 8
  %25 = load ptr, ptr %retval.i49, align 8
  %coerce.dive39 = getelementptr inbounds %"class.v8::Local.12", ptr %ref.tmp37, i32 0, i32 0
  %coerce.dive40 = getelementptr inbounds %"class.v8::LocalBase.13", ptr %coerce.dive39, i32 0, i32 0
  %coerce.dive41 = getelementptr inbounds %"class.v8::IndirectHandleBase", ptr %coerce.dive40, i32 0, i32 0
  store ptr %25, ptr %coerce.dive41, align 8
  %26 = load ptr, ptr %result.addr, align 8
  call void @llvm.memcpy.p0.p0.i64(ptr align 8 %26, ptr align 8 %ref.tmp37, i64 8, i1 false)
  br label %if.end42

if.end42:                                         ; preds = %do.end36, %do.end25
  store i32 0, ptr %retval, align 4
  br label %return

return:                                           ; preds = %if.end42, %if.then33, %if.then14, %if.then5
  %27 = load i32, ptr %retval, align 4
  ret i32 %27
}