; Function Attrs: mustprogress nounwind uwtable
define internal fastcc noundef i32 @_ZN6v8impl12_GLOBAL__N_128V8NameFromPropertyDescriptorEP10napi_env__PK24napi_property_descriptorPN2v85LocalINS6_4NameEEE(ptr nocapture noundef %env, ptr nocapture noundef readonly %p, ptr nocapture noundef writeonly %result) unnamed_addr #3 {
entry:
  %0 = load ptr, ptr %p, align 8
  %cmp.not = icmp eq ptr %0, null
  br i1 %cmp.not, label %if.else, label %do.end6

do.end6:                                          ; preds = %entry
  %isolate = getelementptr inbounds i8, ptr %env, i64 8
  %1 = load ptr, ptr %isolate, align 8
  %call8 = tail call ptr @_ZN2v86String11NewFromUtf8EPNS_7IsolateEPKcNS_13NewStringTypeEi(ptr noundef %1, ptr noundef nonnull %0, i32 noundef 1, i32 noundef -1) #24
  %cmp.i.i = icmp eq ptr %call8, null
  br i1 %cmp.i.i, label %if.then14, label %if.end42

if.then14:                                        ; preds = %do.end6
  %error_code1.i = getelementptr inbounds i8, ptr %env, i64 156
  store i32 9, ptr %error_code1.i, align 4
  %engine_error_code3.i = getelementptr inbounds i8, ptr %env, i64 152
  store i32 0, ptr %engine_error_code3.i, align 8
  %engine_reserved5.i = getelementptr inbounds i8, ptr %env, i64 144
  store ptr null, ptr %engine_reserved5.i, align 8
  br label %return

if.else:                                          ; preds = %entry
  %name = getelementptr inbounds i8, ptr %p, i64 8
  %2 = load ptr, ptr %name, align 8
  %call32 = tail call noundef zeroext i1 @_ZNK2v85Value6IsNameEv(ptr noundef nonnull align 1 dereferenceable(1) %2) #24
  br i1 %call32, label %if.end42, label %if.then33

if.then33:                                        ; preds = %if.else
  %error_code1.i9 = getelementptr inbounds i8, ptr %env, i64 156
  store i32 4, ptr %error_code1.i9, align 4
  %engine_error_code3.i10 = getelementptr inbounds i8, ptr %env, i64 152
  store i32 0, ptr %engine_error_code3.i10, align 8
  %engine_reserved5.i11 = getelementptr inbounds i8, ptr %env, i64 144
  store ptr null, ptr %engine_reserved5.i11, align 8
  br label %return

if.end42:                                         ; preds = %if.else, %do.end6
  %storemerge = phi ptr [ %call8, %do.end6 ], [ %2, %if.else ]
  store ptr %storemerge, ptr %result, align 8
  br label %return

return:                                           ; preds = %if.end42, %if.then33, %if.then14
  %retval.0 = phi i32 [ 9, %if.then14 ], [ 0, %if.end42 ], [ 4, %if.then33 ]
  ret i32 %retval.0
}